target datalayout = "e-m:e-p270:32:32-p271:32:32-p272:64:64-i64:64-i128:128-f80:128-n8:16:32:64-S128"
target triple = "x86_64-pc-linux-gnu"

%class.HotSpotToSharedLibraryExceptionTranslation = type { %class.ExceptionTranslation, ptr }
%class.ExceptionTranslation = type { ptr, ptr, ptr }

@_ZTV20ExceptionTranslation = linkonce_odr hidden unnamed_addr constant { [4 x ptr] } { [4 x ptr] [ptr null, ptr null, ptr @__cxa_pure_virtual, ptr @__cxa_pure_virtual] }, comdat, align 8

; Function Attrs: mustprogress nounwind uwtable
define linkonce_odr hidden void @_ZN20ExceptionTranslationC2EP8JVMCIEnvS1_(ptr noundef nonnull align 8 dereferenceable(24) %0, ptr noundef %1, ptr noundef %2) unnamed_addr #1 comdat align 2 {
  %4 = alloca ptr, align 8
  %5 = alloca ptr, align 8
  %6 = alloca ptr, align 8
  store ptr %0, ptr %4, align 8
  store ptr %1, ptr %5, align 8
  store ptr %2, ptr %6, align 8
  %7 = load ptr, ptr %4, align 8
  store ptr getelementptr inbounds inrange(-16, 16) ({ [4 x ptr] }, ptr @_ZTV20ExceptionTranslation, i32 0, i32 0, i32 2), ptr %7, align 8
  %8 = getelementptr inbounds %class.ExceptionTranslation, ptr %7, i32 0, i32 1
  %9 = load ptr, ptr %5, align 8
  store ptr %9, ptr %8, align 8
  %10 = getelementptr inbounds %class.ExceptionTranslation, ptr %7, i32 0, i32 2
  %11 = load ptr, ptr %6, align 8
  store ptr %11, ptr %10, align 8
  ret void
}

; Function Attrs: mustprogress nounwind uwtable
define linkonce_odr hidden void @_ZN42HotSpotToSharedLibraryExceptionTranslationC2EP8JVMCIEnvS1_RK6Handle(ptr noundef nonnull align 8 dereferenceable(32) %0, ptr noundef %1, ptr noundef %2, ptr noundef nonnull align 8 dereferenceable(8) %3) unnamed_addr #1 comdat align 2 {
  %5 = alloca ptr, align 8
  %6 = alloca ptr, align 8
  %7 = alloca ptr, align 8
  %8 = alloca ptr, align 8
  store ptr %0, ptr %5, align 8
  store ptr %1, ptr %6, align 8
  store ptr %2, ptr %7, align 8
  store ptr %3, ptr %8, align 8
  %9 = load ptr, ptr %5, align 8
  %10 = load ptr, ptr %6, align 8
  %11 = load ptr, ptr %7, align 8
  call void @_ZN20ExceptionTranslationC2EP8JVMCIEnvS1_(ptr noundef nonnull align 8 dereferenceable(24) %9, ptr noundef %10, ptr noundef %11)
  store ptr getelementptr inbounds inrange(-16, 16) ({ [4 x ptr] }, ptr @_ZTV42HotSpotToSharedLibraryExceptionTranslation, i32 0, i32 0, i32 2), ptr %9, align 8
  %12 = getelementptr inbounds %class.HotSpotToSharedLibraryExceptionTranslation, ptr %9, i32 0, i32 1
  %13 = load ptr, ptr %8, align 8
  store ptr %13, ptr %12, align 8
  ret void
}

; Function Attrs: mustprogress nounwind uwtable
define hidden void @_ZN8JVMCIEnv26translate_to_jni_exceptionEP10JavaThreadRK6HandlePS_S5_(ptr noundef %0, ptr noundef nonnull align 8 dereferenceable(8) %1, ptr noundef %2, ptr noundef %3) #1 align 2 {
  %5 = alloca ptr, align 8
  %6 = alloca ptr, align 8
  %7 = alloca ptr, align 8
  %8 = alloca ptr, align 8
  %9 = alloca %class.HotSpotToSharedLibraryExceptionTranslation, align 8
  store ptr %0, ptr %5, align 8
  store ptr %1, ptr %6, align 8
  store ptr %2, ptr %7, align 8
  store ptr %3, ptr %8, align 8
  %10 = load ptr, ptr %7, align 8
  %11 = load ptr, ptr %8, align 8
  %12 = load ptr, ptr %6, align 8
  call void @_ZN42HotSpotToSharedLibraryExceptionTranslationC2EP8JVMCIEnvS1_RK6Handle(ptr noundef nonnull align 8 dereferenceable(32) %9, ptr noundef %10, ptr noundef %11, ptr noundef nonnull align 8 dereferenceable(8) %12)
  %13 = load ptr, ptr %5, align 8
  call void @_ZN20ExceptionTranslation4doitEP10JavaThread(ptr noundef nonnull align 8 dereferenceable(24) %9, ptr noundef %13)
  ret void
}