; Function Attrs: mustprogress nounwind uwtable
define hidden void @_ZN8JVMCIEnv26translate_to_jni_exceptionEP10JavaThreadRK6HandlePS_S5_(ptr noundef %0, ptr noundef nonnull align 8 dereferenceable(8) %1, ptr noundef %2, ptr noundef %3) local_unnamed_addr #0 align 2 {
  %5 = alloca %class.HotSpotToSharedLibraryExceptionTranslation, align 8
  %6 = getelementptr inbounds i8, ptr %5, i64 8
  store ptr %2, ptr %6, align 8
  %7 = getelementptr inbounds i8, ptr %5, i64 16
  store ptr %3, ptr %7, align 8
  store ptr getelementptr inbounds inrange(-16, 16) (i8, ptr @_ZTV42HotSpotToSharedLibraryExceptionTranslation, i64 16), ptr %5, align 8
  %8 = getelementptr inbounds i8, ptr %5, i64 24
  store ptr %1, ptr %8, align 8
  call void @_ZN20ExceptionTranslation4doitEP10JavaThread(ptr noundef nonnull align 8 dereferenceable(24) %5, ptr noundef %0)
  ret void
}